; ModuleID = '50/861.c'
source_filename = "50/861.c"
target datalayout = "e-m:e-p270:32:32-p271:32:32-p272:64:64-i64:64-f80:128-n8:16:32:64-S128"
target triple = "x86_64-pc-linux-gnu"

@.str = private unnamed_addr constant [3 x i8] c"%d\00", align 1
@__const.main.m = private unnamed_addr constant [13 x i32] [i32 0, i32 31, i32 28, i32 31, i32 30, i32 31, i32 30, i32 31, i32 31, i32 30, i32 31, i32 30, i32 31], align 16
@.str.1 = private unnamed_addr constant [4 x i8] c"%d\0A\00", align 1

; Function Attrs: noinline nounwind uwtable
define dso_local i32 @main() #0 {
  %1 = alloca i32, align 4
  %2 = alloca i32, align 4
  %3 = alloca [100 x i32], align 16
  %4 = alloca i32, align 4
  %5 = alloca i32, align 4
  %6 = alloca i32, align 4
  %7 = alloca [13 x i32], align 16
  store i32 0, i32* %1, align 4
  %8 = bitcast [100 x i32]* %3 to i8*
  call void @llvm.memset.p0i8.i64(i8* align 16 %8, i8 0, i64 400, i1 false)
  %9 = call i32 (i8*, ...) @__isoc99_scanf(i8* getelementptr inbounds ([3 x i8], [3 x i8]* @.str, i64 0, i64 0), i32* %2)
  %10 = load i32, i32* %2, align 4
  %11 = icmp eq i32 %10, 1
  br i1 %11, label %24, label %12

12:                                               ; preds = %0
  %13 = load i32, i32* %2, align 4
  %14 = icmp eq i32 %13, 2
  br i1 %14, label %24, label %15

15:                                               ; preds = %12
  %16 = load i32, i32* %2, align 4
  %17 = icmp eq i32 %16, 3
  br i1 %17, label %24, label %18

18:                                               ; preds = %15
  %19 = load i32, i32* %2, align 4
  %20 = icmp eq i32 %19, 4
  br i1 %20, label %24, label %21

21:                                               ; preds = %18
  %22 = load i32, i32* %2, align 4
  %23 = icmp eq i32 %22, 5
  br i1 %23, label %24, label %28

24:                                               ; preds = %21, %18, %15, %12, %0
  %25 = load i32, i32* %2, align 4
  %26 = sub nsw i32 6, %25
  %27 = getelementptr inbounds [100 x i32], [100 x i32]* %3, i64 0, i64 0
  store i32 %26, i32* %27, align 16
  br label %40

28:                                               ; preds = %21
  %29 = load i32, i32* %2, align 4
  %30 = icmp eq i32 %29, 6
  br i1 %30, label %31, label %33

31:                                               ; preds = %28
  %32 = getelementptr inbounds [100 x i32], [100 x i32]* %3, i64 0, i64 0
  store i32 7, i32* %32, align 16
  br label %39

33:                                               ; preds = %28
  %34 = load i32, i32* %2, align 4
  %35 = icmp eq i32 %34, 7
  br i1 %35, label %36, label %38

36:                                               ; preds = %33
  %37 = getelementptr inbounds [100 x i32], [100 x i32]* %3, i64 0, i64 0
  store i32 6, i32* %37, align 16
  br label %38

38:                                               ; preds = %36, %33
  br label %39

39:                                               ; preds = %38, %31
  br label %40

40:                                               ; preds = %39, %24
  %41 = bitcast [13 x i32]* %7 to i8*
  call void @llvm.memcpy.p0i8.p0i8.i64(i8* align 16 %41, i8* align 16 bitcast ([13 x i32]* @__const.main.m to i8*), i64 52, i1 false)
  %42 = getelementptr inbounds [100 x i32], [100 x i32]* %3, i64 0, i64 1
  store i32 0, i32* %42, align 4
  store i32 1, i32* %4, align 4
  br label %43

43:                                               ; preds = %85, %40
  %44 = load i32, i32* %4, align 4
  %45 = sub nsw i32 %44, 1
  %46 = sext i32 %45 to i64
  %47 = getelementptr inbounds [100 x i32], [100 x i32]* %3, i64 0, i64 %46
  %48 = load i32, i32* %47, align 4
  %49 = icmp sle i32 %48, 365
  br i1 %49, label %50, label %88

50:                                               ; preds = %43
  %51 = load i32, i32* %4, align 4
  %52 = sub nsw i32 %51, 1
  %53 = sext i32 %52 to i64
  %54 = getelementptr inbounds [100 x i32], [100 x i32]* %3, i64 0, i64 %53
  %55 = load i32, i32* %54, align 4
  %56 = add nsw i32 %55, 7
  %57 = load i32, i32* %4, align 4
  %58 = sext i32 %57 to i64
  %59 = getelementptr inbounds [100 x i32], [100 x i32]* %3, i64 0, i64 %58
  store i32 %56, i32* %59, align 4
  store i32 13, i32* %6, align 4
  store i32 0, i32* %5, align 4
  br label %60

60:                                               ; preds = %81, %50
  %61 = load i32, i32* %5, align 4
  %62 = icmp sle i32 %61, 11
  br i1 %62, label %63, label %84

63:                                               ; preds = %60
  %64 = load i32, i32* %5, align 4
  %65 = sext i32 %64 to i64
  %66 = getelementptr inbounds [13 x i32], [13 x i32]* %7, i64 0, i64 %65
  %67 = load i32, i32* %66, align 4
  %68 = load i32, i32* %6, align 4
  %69 = add nsw i32 %68, %67
  store i32 %69, i32* %6, align 4
  %70 = load i32, i32* %4, align 4
  %71 = sext i32 %70 to i64
  %72 = getelementptr inbounds [100 x i32], [100 x i32]* %3, i64 0, i64 %71
  %73 = load i32, i32* %72, align 4
  %74 = load i32, i32* %6, align 4
  %75 = icmp eq i32 %73, %74
  br i1 %75, label %76, label %80

76:                                               ; preds = %63
  %77 = load i32, i32* %5, align 4
  %78 = add nsw i32 %77, 1
  %79 = call i32 (i8*, ...) @printf(i8* getelementptr inbounds ([4 x i8], [4 x i8]* @.str.1, i64 0, i64 0), i32 %78)
  br label %80

80:                                               ; preds = %76, %63
  br label %81

81:                                               ; preds = %80
  %82 = load i32, i32* %5, align 4
  %83 = add nsw i32 %82, 1
  store i32 %83, i32* %5, align 4
  br label %60

84:                                               ; preds = %60
  br label %85

85:                                               ; preds = %84
  %86 = load i32, i32* %4, align 4
  %87 = add nsw i32 %86, 1
  store i32 %87, i32* %4, align 4
  br label %43

88:                                               ; preds = %43
  ret i32 0
}

; Function Attrs: argmemonly nounwind willreturn
declare void @llvm.memset.p0i8.i64(i8* nocapture writeonly, i8, i64, i1 immarg) #1

declare dso_local i32 @__isoc99_scanf(i8*, ...) #2

; Function Attrs: argmemonly nounwind willreturn
declare void @llvm.memcpy.p0i8.p0i8.i64(i8* noalias nocapture writeonly, i8* noalias nocapture readonly, i64, i1 immarg) #1

declare dso_local i32 @printf(i8*, ...) #2


!llvm.module.flags = !{!0}
!llvm.ident = !{!1}

!0 = !{i32 1, !"wchar_size", i32 4}
!1 = !{!"clang version 10.0.0-4ubuntu1 "}
